target datalayout = "e-m:e-p270:32:32-p271:32:32-p272:64:64-i64:64-i128:128-f80:128-n8:16:32:64-S128"
target triple = "x86_64-pc-linux-gnu"

%"struct.std::_Vector_base" = type { %"struct.std::_Vector_base<unsigned char *, std::allocator<unsigned char *>>::_Vector_impl" }
%"struct.std::_Vector_base<unsigned char *, std::allocator<unsigned char *>>::_Vector_impl" = type { %"struct.std::_Vector_base<unsigned char *, std::allocator<unsigned char *>>::_Vector_impl_data" }
%"struct.std::_Vector_base<unsigned char *, std::allocator<unsigned char *>>::_Vector_impl_data" = type { ptr, ptr, ptr }
%"class.cv::Range" = type { i32, i32 }
%class.anon.30 = type { ptr, ptr, ptr, ptr, ptr, ptr, ptr }

; Function Attrs: mustprogress nounwind uwtable
define linkonce_odr hidden noundef nonnull align 8 dereferenceable(8) ptr @_ZNSt6vectorIPhSaIS0_EEixEm(ptr noundef nonnull align 8 dereferenceable(24) %0, i64 noundef %1) #4 comdat align 2 {
  %3 = alloca ptr, align 8
  %4 = alloca i64, align 8
  store ptr %0, ptr %3, align 8, !tbaa !25
  store i64 %1, ptr %4, align 8, !tbaa !46
  %5 = load ptr, ptr %3, align 8
  %6 = getelementptr inbounds nuw %"struct.std::_Vector_base", ptr %5, i32 0, i32 0
  %7 = getelementptr inbounds nuw %"struct.std::_Vector_base<unsigned char *, std::allocator<unsigned char *>>::_Vector_impl_data", ptr %6, i32 0, i32 0
  %8 = load ptr, ptr %7, align 8, !tbaa !27
  %9 = load i64, ptr %4, align 8, !tbaa !46
  %10 = getelementptr inbounds nuw ptr, ptr %8, i64 %9
  ret ptr %10
}

; Function Attrs: mustprogress nounwind uwtable
define linkonce_odr hidden noundef nonnull align 8 dereferenceable(8) ptr @_ZNKSt6vectorIPhSaIS0_EEixEm(ptr noundef nonnull align 8 dereferenceable(24) %0, i64 noundef %1) #4 comdat align 2 {
  %3 = alloca ptr, align 8
  %4 = alloca i64, align 8
  store ptr %0, ptr %3, align 8, !tbaa !25
  store i64 %1, ptr %4, align 8, !tbaa !46
  %5 = load ptr, ptr %3, align 8
  %6 = getelementptr inbounds nuw %"struct.std::_Vector_base", ptr %5, i32 0, i32 0
  %7 = getelementptr inbounds nuw %"struct.std::_Vector_base<unsigned char *, std::allocator<unsigned char *>>::_Vector_impl_data", ptr %6, i32 0, i32 0
  %8 = load ptr, ptr %7, align 8, !tbaa !27
  %9 = load i64, ptr %4, align 8, !tbaa !46
  %10 = getelementptr inbounds nuw ptr, ptr %8, i64 %9
  ret ptr %10
}

; Function Attrs: inlinehint mustprogress nounwind uwtable
define internal void @"_ZZN2cv10PngDecoder13compose_frameERSt6vectorIPhSaIS2_EERKS4_hjjjjRNS_3MatEENK3$_1clERKNS_5RangeE"(ptr noundef nonnull align 8 dereferenceable(56) %0, ptr noundef nonnull align 4 dereferenceable(8) %1) #7 align 2 {
  %3 = alloca ptr, align 8
  %4 = alloca ptr, align 8
  %5 = alloca i32, align 4
  %6 = alloca i32, align 4
  %7 = alloca ptr, align 8
  %8 = alloca ptr, align 8
  %9 = alloca i32, align 4
  %10 = alloca i32, align 4
  %11 = alloca i32, align 4
  %12 = alloca i32, align 4
  store ptr %0, ptr %3, align 8, !tbaa !49
  store ptr %1, ptr %4, align 8, !tbaa !191
  %13 = load ptr, ptr %3, align 8
  call void @llvm.lifetime.start.p0(i64 4, ptr %5) #3
  %14 = load ptr, ptr %4, align 8, !tbaa !191
  %15 = getelementptr inbounds nuw %"class.cv::Range", ptr %14, i32 0, i32 0
  %16 = load i32, ptr %15, align 4, !tbaa !195
  store i32 %16, ptr %5, align 4, !tbaa !31
  br label %17

17:                                               ; preds = %204, %2
  %18 = load i32, ptr %5, align 4, !tbaa !31
  %19 = load ptr, ptr %4, align 8, !tbaa !191
  %20 = getelementptr inbounds nuw %"class.cv::Range", ptr %19, i32 0, i32 1
  %21 = load i32, ptr %20, align 4, !tbaa !197
  %22 = icmp slt i32 %18, %21
  br i1 %22, label %24, label %23

23:                                               ; preds = %17
  store i32 2, ptr %6, align 4
  call void @llvm.lifetime.end.p0(i64 4, ptr %5) #3
  br label %207

24:                                               ; preds = %17
  call void @llvm.lifetime.start.p0(i64 8, ptr %7) #3
  %25 = getelementptr inbounds nuw %class.anon.30, ptr %13, i32 0, i32 0
  %26 = load ptr, ptr %25, align 8, !tbaa !524
  %27 = load i32, ptr %5, align 4, !tbaa !31
  %28 = sext i32 %27 to i64
  %29 = call noundef nonnull align 8 dereferenceable(8) ptr @_ZNKSt6vectorIPhSaIS0_EEixEm(ptr noundef nonnull align 8 dereferenceable(24) %26, i64 noundef %28) #3
  %30 = load ptr, ptr %29, align 8, !tbaa !42
  store ptr %30, ptr %7, align 8, !tbaa !42
  call void @llvm.lifetime.start.p0(i64 8, ptr %8) #3
  %31 = getelementptr inbounds nuw %class.anon.30, ptr %13, i32 0, i32 1
  %32 = load ptr, ptr %31, align 8, !tbaa !526
  %33 = load i32, ptr %5, align 4, !tbaa !31
  %34 = getelementptr inbounds nuw %class.anon.30, ptr %13, i32 0, i32 2
  %35 = load ptr, ptr %34, align 8, !tbaa !527
  %36 = load i32, ptr %35, align 4, !tbaa !31
  %37 = add i32 %33, %36
  %38 = zext i32 %37 to i64
  %39 = call noundef nonnull align 8 dereferenceable(8) ptr @_ZNSt6vectorIPhSaIS0_EEixEm(ptr noundef nonnull align 8 dereferenceable(24) %32, i64 noundef %38) #3
  %40 = load ptr, ptr %39, align 8, !tbaa !42
  %41 = getelementptr inbounds nuw %class.anon.30, ptr %13, i32 0, i32 3
  %42 = load ptr, ptr %41, align 8, !tbaa !528
  %43 = load i32, ptr %42, align 4, !tbaa !31
  %44 = getelementptr inbounds nuw %class.anon.30, ptr %13, i32 0, i32 4
  %45 = load ptr, ptr %44, align 8, !tbaa !529
  %46 = load i32, ptr %45, align 4, !tbaa !31
  %47 = mul i32 %43, %46
  %48 = zext i32 %47 to i64
  %49 = getelementptr inbounds nuw i8, ptr %40, i64 %48
  store ptr %49, ptr %8, align 8, !tbaa !42
  %50 = getelementptr inbounds nuw %class.anon.30, ptr %13, i32 0, i32 5
  %51 = load ptr, ptr %50, align 8, !tbaa !530
  %52 = load i8, ptr %51, align 1, !tbaa !48
  %53 = zext i8 %52 to i32
  %54 = icmp eq i32 %53, 0
  br i1 %54, label %55, label %66

55:                                               ; preds = %24
  %56 = load ptr, ptr %8, align 8, !tbaa !42
  %57 = load ptr, ptr %7, align 8, !tbaa !42
  %58 = getelementptr inbounds nuw %class.anon.30, ptr %13, i32 0, i32 6
  %59 = load ptr, ptr %58, align 8, !tbaa !531
  %60 = load i32, ptr %59, align 4, !tbaa !31
  %61 = getelementptr inbounds nuw %class.anon.30, ptr %13, i32 0, i32 4
  %62 = load ptr, ptr %61, align 8, !tbaa !529
  %63 = load i32, ptr %62, align 4, !tbaa !31
  %64 = mul i32 %60, %63
  %65 = zext i32 %64 to i64
  call void @llvm.memcpy.p0.p0.i64(ptr align 1 %56, ptr align 1 %57, i64 %65, i1 false)
  br label %203

66:                                               ; preds = %24
  call void @llvm.lifetime.start.p0(i64 4, ptr %9) #3
  store i32 0, ptr %9, align 4, !tbaa !31
  br label %67

67:                                               ; preds = %187, %66
  %68 = load i32, ptr %9, align 4, !tbaa !31
  %69 = getelementptr inbounds nuw %class.anon.30, ptr %13, i32 0, i32 6
  %70 = load ptr, ptr %69, align 8, !tbaa !531
  %71 = load i32, ptr %70, align 4, !tbaa !31
  %72 = icmp ult i32 %68, %71
  br i1 %72, label %74, label %73

73:                                               ; preds = %67
  store i32 5, ptr %6, align 4
  call void @llvm.lifetime.end.p0(i64 4, ptr %9) #3
  br label %202

74:                                               ; preds = %67
  %75 = load ptr, ptr %7, align 8, !tbaa !42
  %76 = getelementptr inbounds i8, ptr %75, i64 3
  %77 = load i8, ptr %76, align 1, !tbaa !48
  %78 = zext i8 %77 to i32
  %79 = icmp eq i32 %78, 255
  br i1 %79, label %80, label %87

80:                                               ; preds = %74
  %81 = load ptr, ptr %8, align 8, !tbaa !42
  %82 = load ptr, ptr %7, align 8, !tbaa !42
  %83 = getelementptr inbounds nuw %class.anon.30, ptr %13, i32 0, i32 4
  %84 = load ptr, ptr %83, align 8, !tbaa !529
  %85 = load i32, ptr %84, align 4, !tbaa !31
  %86 = sext i32 %85 to i64
  call void @llvm.memcpy.p0.p0.i64(ptr align 1 %81, ptr align 1 %82, i64 %86, i1 false)
  br label %186

87:                                               ; preds = %74
  %88 = load ptr, ptr %7, align 8, !tbaa !42
  %89 = getelementptr inbounds i8, ptr %88, i64 3
  %90 = load i8, ptr %89, align 1, !tbaa !48
  %91 = zext i8 %90 to i32
  %92 = icmp ne i32 %91, 0
  br i1 %92, label %93, label %185

93:                                               ; preds = %87
  %94 = load ptr, ptr %8, align 8, !tbaa !42
  %95 = getelementptr inbounds i8, ptr %94, i64 3
  %96 = load i8, ptr %95, align 1, !tbaa !48
  %97 = zext i8 %96 to i32
  %98 = icmp ne i32 %97, 0
  br i1 %98, label %99, label %177

99:                                               ; preds = %93
  call void @llvm.lifetime.start.p0(i64 4, ptr %10) #3
  %100 = load ptr, ptr %7, align 8, !tbaa !42
  %101 = getelementptr inbounds i8, ptr %100, i64 3
  %102 = load i8, ptr %101, align 1, !tbaa !48
  %103 = zext i8 %102 to i32
  %104 = mul nsw i32 %103, 255
  store i32 %104, ptr %10, align 4, !tbaa !31
  call void @llvm.lifetime.start.p0(i64 4, ptr %11) #3
  %105 = load ptr, ptr %7, align 8, !tbaa !42
  %106 = getelementptr inbounds i8, ptr %105, i64 3
  %107 = load i8, ptr %106, align 1, !tbaa !48
  %108 = zext i8 %107 to i32
  %109 = sub nsw i32 255, %108
  %110 = load ptr, ptr %8, align 8, !tbaa !42
  %111 = getelementptr inbounds i8, ptr %110, i64 3
  %112 = load i8, ptr %111, align 1, !tbaa !48
  %113 = zext i8 %112 to i32
  %114 = mul nsw i32 %109, %113
  store i32 %114, ptr %11, align 4, !tbaa !31
  call void @llvm.lifetime.start.p0(i64 4, ptr %12) #3
  %115 = load i32, ptr %10, align 4, !tbaa !31
  %116 = load i32, ptr %11, align 4, !tbaa !31
  %117 = add nsw i32 %115, %116
  store i32 %117, ptr %12, align 4, !tbaa !31
  %118 = load ptr, ptr %7, align 8, !tbaa !42
  %119 = getelementptr inbounds i8, ptr %118, i64 0
  %120 = load i8, ptr %119, align 1, !tbaa !48
  %121 = zext i8 %120 to i32
  %122 = load i32, ptr %10, align 4, !tbaa !31
  %123 = mul nsw i32 %121, %122
  %124 = load ptr, ptr %8, align 8, !tbaa !42
  %125 = getelementptr inbounds i8, ptr %124, i64 0
  %126 = load i8, ptr %125, align 1, !tbaa !48
  %127 = zext i8 %126 to i32
  %128 = load i32, ptr %11, align 4, !tbaa !31
  %129 = mul nsw i32 %127, %128
  %130 = add nsw i32 %123, %129
  %131 = load i32, ptr %12, align 4, !tbaa !31
  %132 = sdiv i32 %130, %131
  %133 = trunc i32 %132 to i8
  %134 = load ptr, ptr %8, align 8, !tbaa !42
  %135 = getelementptr inbounds i8, ptr %134, i64 0
  store i8 %133, ptr %135, align 1, !tbaa !48
  %136 = load ptr, ptr %7, align 8, !tbaa !42
  %137 = getelementptr inbounds i8, ptr %136, i64 1
  %138 = load i8, ptr %137, align 1, !tbaa !48
  %139 = zext i8 %138 to i32
  %140 = load i32, ptr %10, align 4, !tbaa !31
  %141 = mul nsw i32 %139, %140
  %142 = load ptr, ptr %8, align 8, !tbaa !42
  %143 = getelementptr inbounds i8, ptr %142, i64 1
  %144 = load i8, ptr %143, align 1, !tbaa !48
  %145 = zext i8 %144 to i32
  %146 = load i32, ptr %11, align 4, !tbaa !31
  %147 = mul nsw i32 %145, %146
  %148 = add nsw i32 %141, %147
  %149 = load i32, ptr %12, align 4, !tbaa !31
  %150 = sdiv i32 %148, %149
  %151 = trunc i32 %150 to i8
  %152 = load ptr, ptr %8, align 8, !tbaa !42
  %153 = getelementptr inbounds i8, ptr %152, i64 1
  store i8 %151, ptr %153, align 1, !tbaa !48
  %154 = load ptr, ptr %7, align 8, !tbaa !42
  %155 = getelementptr inbounds i8, ptr %154, i64 2
  %156 = load i8, ptr %155, align 1, !tbaa !48
  %157 = zext i8 %156 to i32
  %158 = load i32, ptr %10, align 4, !tbaa !31
  %159 = mul nsw i32 %157, %158
  %160 = load ptr, ptr %8, align 8, !tbaa !42
  %161 = getelementptr inbounds i8, ptr %160, i64 2
  %162 = load i8, ptr %161, align 1, !tbaa !48
  %163 = zext i8 %162 to i32
  %164 = load i32, ptr %11, align 4, !tbaa !31
  %165 = mul nsw i32 %163, %164
  %166 = add nsw i32 %159, %165
  %167 = load i32, ptr %12, align 4, !tbaa !31
  %168 = sdiv i32 %166, %167
  %169 = trunc i32 %168 to i8
  %170 = load ptr, ptr %8, align 8, !tbaa !42
  %171 = getelementptr inbounds i8, ptr %170, i64 2
  store i8 %169, ptr %171, align 1, !tbaa !48
  %172 = load i32, ptr %12, align 4, !tbaa !31
  %173 = sdiv i32 %172, 255
  %174 = trunc i32 %173 to i8
  %175 = load ptr, ptr %8, align 8, !tbaa !42
  %176 = getelementptr inbounds i8, ptr %175, i64 3
  store i8 %174, ptr %176, align 1, !tbaa !48
  call void @llvm.lifetime.end.p0(i64 4, ptr %12) #3
  call void @llvm.lifetime.end.p0(i64 4, ptr %11) #3
  call void @llvm.lifetime.end.p0(i64 4, ptr %10) #3
  br label %184

177:                                              ; preds = %93
  %178 = load ptr, ptr %8, align 8, !tbaa !42
  %179 = load ptr, ptr %7, align 8, !tbaa !42
  %180 = getelementptr inbounds nuw %class.anon.30, ptr %13, i32 0, i32 4
  %181 = load ptr, ptr %180, align 8, !tbaa !529
  %182 = load i32, ptr %181, align 4, !tbaa !31
  %183 = sext i32 %182 to i64
  call void @llvm.memcpy.p0.p0.i64(ptr align 1 %178, ptr align 1 %179, i64 %183, i1 false)
  br label %184

184:                                              ; preds = %177, %99
  br label %185

185:                                              ; preds = %184, %87
  br label %186

186:                                              ; preds = %185, %80
  br label %187

187:                                              ; preds = %186
  %188 = load i32, ptr %9, align 4, !tbaa !31
  %189 = add i32 %188, 1
  store i32 %189, ptr %9, align 4, !tbaa !31
  %190 = getelementptr inbounds nuw %class.anon.30, ptr %13, i32 0, i32 4
  %191 = load ptr, ptr %190, align 8, !tbaa !529
  %192 = load i32, ptr %191, align 4, !tbaa !31
  %193 = load ptr, ptr %7, align 8, !tbaa !42
  %194 = sext i32 %192 to i64
  %195 = getelementptr inbounds i8, ptr %193, i64 %194
  store ptr %195, ptr %7, align 8, !tbaa !42
  %196 = getelementptr inbounds nuw %class.anon.30, ptr %13, i32 0, i32 4
  %197 = load ptr, ptr %196, align 8, !tbaa !529
  %198 = load i32, ptr %197, align 4, !tbaa !31
  %199 = load ptr, ptr %8, align 8, !tbaa !42
  %200 = sext i32 %198 to i64
  %201 = getelementptr inbounds i8, ptr %199, i64 %200
  store ptr %201, ptr %8, align 8, !tbaa !42
  br label %67, !llvm.loop !532

202:                                              ; preds = %73
  br label %203

203:                                              ; preds = %202, %55
  call void @llvm.lifetime.end.p0(i64 8, ptr %8) #3
  call void @llvm.lifetime.end.p0(i64 8, ptr %7) #3
  br label %204

204:                                              ; preds = %203
  %205 = load i32, ptr %5, align 4, !tbaa !31
  %206 = add nsw i32 %205, 1
  store i32 %206, ptr %5, align 4, !tbaa !31
  br label %17, !llvm.loop !533

207:                                              ; preds = %23
  ret void
}

; Function Attrs: mustprogress nounwind uwtable
define linkonce_odr hidden noundef ptr @_ZNKSt9_Any_data9_M_accessEv(ptr noundef nonnull align 8 dereferenceable(16) %0) #4 comdat align 2 {
  %2 = alloca ptr, align 8
  store ptr %0, ptr %2, align 8, !tbaa !509
  %3 = load ptr, ptr %2, align 8
  %4 = getelementptr inbounds [16 x i8], ptr %3, i64 0, i64 0
  ret ptr %4
}

; Function Attrs: mustprogress uwtable
define internal void @"_ZSt13__invoke_implIvRZN2cv10PngDecoder13compose_frameERSt6vectorIPhSaIS3_EERKS5_hjjjjRNS0_3MatEE3$_1JRKNS0_5RangeEEET_St14__invoke_otherOT0_DpOT1_"(ptr noundef nonnull align 8 dereferenceable(56) %0, ptr noundef nonnull align 4 dereferenceable(8) %1) #5 {
  %3 = alloca ptr, align 8
  %4 = alloca ptr, align 8
  store ptr %0, ptr %3, align 8, !tbaa !49
  store ptr %1, ptr %4, align 8, !tbaa !191
  %5 = load ptr, ptr %3, align 8, !tbaa !49
  %6 = load ptr, ptr %4, align 8, !tbaa !191
  call void @"_ZZN2cv10PngDecoder13compose_frameERSt6vectorIPhSaIS2_EERKS4_hjjjjRNS_3MatEENK3$_1clERKNS_5RangeE"(ptr noundef nonnull align 8 dereferenceable(56) %5, ptr noundef nonnull align 4 dereferenceable(8) %6)
  ret void
}

; Function Attrs: mustprogress nounwind uwtable
define internal noundef nonnull align 8 dereferenceable(8) ptr @"_ZNKSt9_Any_data9_M_accessIPZN2cv10PngDecoder13compose_frameERSt6vectorIPhSaIS4_EERKS6_hjjjjRNS1_3MatEE3$_1EERKT_v"(ptr noundef nonnull align 8 dereferenceable(16) %0) #4 align 2 {
  %2 = alloca ptr, align 8
  store ptr %0, ptr %2, align 8, !tbaa !509
  %3 = load ptr, ptr %2, align 8
  %4 = call noundef ptr @_ZNKSt9_Any_data9_M_accessEv(ptr noundef nonnull align 8 dereferenceable(16) %3) #3
  ret ptr %4
}

; Function Attrs: mustprogress uwtable
define internal void @"_ZSt10__invoke_rIvRZN2cv10PngDecoder13compose_frameERSt6vectorIPhSaIS3_EERKS5_hjjjjRNS0_3MatEE3$_1JRKNS0_5RangeEEENSt9enable_ifIXsr6__and_ISt7is_voidIT_ESt14__is_invocableIT0_JDpT1_EEEE5valueESI_E4typeEOSL_DpOSM_"(ptr noundef nonnull align 8 dereferenceable(56) %0, ptr noundef nonnull align 4 dereferenceable(8) %1) #5 {
  %3 = alloca ptr, align 8
  %4 = alloca ptr, align 8
  store ptr %0, ptr %3, align 8, !tbaa !49
  store ptr %1, ptr %4, align 8, !tbaa !191
  %5 = load ptr, ptr %3, align 8, !tbaa !49
  %6 = load ptr, ptr %4, align 8, !tbaa !191
  call void @"_ZSt13__invoke_implIvRZN2cv10PngDecoder13compose_frameERSt6vectorIPhSaIS3_EERKS5_hjjjjRNS0_3MatEE3$_1JRKNS0_5RangeEEET_St14__invoke_otherOT0_DpOT1_"(ptr noundef nonnull align 8 dereferenceable(56) %5, ptr noundef nonnull align 4 dereferenceable(8) %6)
  ret void
}

; Function Attrs: mustprogress nounwind uwtable
define internal noundef ptr @"_ZNSt14_Function_base13_Base_managerIZN2cv10PngDecoder13compose_frameERSt6vectorIPhSaIS4_EERKS6_hjjjjRNS1_3MatEE3$_1E14_M_get_pointerERKSt9_Any_data"(ptr noundef nonnull align 8 dereferenceable(16) %0) #4 align 2 {
  %2 = alloca ptr, align 8
  store ptr %0, ptr %2, align 8, !tbaa !509
  %3 = load ptr, ptr %2, align 8, !tbaa !509
  %4 = call noundef nonnull align 8 dereferenceable(8) ptr @"_ZNKSt9_Any_data9_M_accessIPZN2cv10PngDecoder13compose_frameERSt6vectorIPhSaIS4_EERKS6_hjjjjRNS1_3MatEE3$_1EERKT_v"(ptr noundef nonnull align 8 dereferenceable(16) %3) #3
  %5 = load ptr, ptr %4, align 8, !tbaa !49
  ret ptr %5
}

; Function Attrs: mustprogress uwtable
define internal void @"_ZNSt17_Function_handlerIFvRKN2cv5RangeEEZNS0_10PngDecoder13compose_frameERSt6vectorIPhSaIS7_EERKS9_hjjjjRNS0_3MatEE3$_1E9_M_invokeERKSt9_Any_dataS3_"(ptr noundef nonnull align 8 dereferenceable(16) %0, ptr noundef nonnull align 4 dereferenceable(8) %1) #5 align 2 {
  %3 = alloca ptr, align 8
  %4 = alloca ptr, align 8
  store ptr %0, ptr %3, align 8, !tbaa !509
  store ptr %1, ptr %4, align 8, !tbaa !191
  %5 = load ptr, ptr %3, align 8, !tbaa !509
  %6 = call noundef ptr @"_ZNSt14_Function_base13_Base_managerIZN2cv10PngDecoder13compose_frameERSt6vectorIPhSaIS4_EERKS6_hjjjjRNS1_3MatEE3$_1E14_M_get_pointerERKSt9_Any_data"(ptr noundef nonnull align 8 dereferenceable(16) %5) #3
  %7 = load ptr, ptr %4, align 8, !tbaa !191
  call void @"_ZSt10__invoke_rIvRZN2cv10PngDecoder13compose_frameERSt6vectorIPhSaIS3_EERKS5_hjjjjRNS0_3MatEE3$_1JRKNS0_5RangeEEENSt9enable_ifIXsr6__and_ISt7is_voidIT_ESt14__is_invocableIT0_JDpT1_EEEE5valueESI_E4typeEOSL_DpOSM_"(ptr noundef nonnull align 8 dereferenceable(56) %6, ptr noundef nonnull align 4 dereferenceable(8) %7)
  ret void
}