; Function Attrs: mustprogress nofree norecurse nosync nounwind memory(readwrite, inaccessiblemem: none) uwtable
define internal void @"_ZNSt17_Function_handlerIFvRKN2cv5RangeEEZNS0_10PngDecoder13compose_frameERSt6vectorIPhSaIS7_EERKS9_hjjjjRNS0_3MatEE3$_1E9_M_invokeERKSt9_Any_dataS3_"(ptr noundef nonnull readonly align 8 captures(none) dereferenceable(16) %0, ptr noundef nonnull readonly align 4 captures(none) dereferenceable(8) %1) #26 align 2 {
  %.val = load ptr, ptr %0, align 8, !tbaa !204
  %3 = load i32, ptr %1, align 4, !tbaa !198
  %4 = getelementptr inbounds nuw i8, ptr %1, i64 4
  %5 = load i32, ptr %4, align 4, !tbaa !200
  %6 = icmp slt i32 %3, %5
  br i1 %6, label %.lr.ph54.i.i.i, label %"_ZSt10__invoke_rIvRZN2cv10PngDecoder13compose_frameERSt6vectorIPhSaIS3_EERKS5_hjjjjRNS0_3MatEE3$_1JRKNS0_5RangeEEENSt9enable_ifIXsr6__and_ISt7is_voidIT_ESt14__is_invocableIT0_JDpT1_EEEE5valueESI_E4typeEOSL_DpOSM_.exit"

.lr.ph54.i.i.i:                                   ; preds = %2
  %7 = getelementptr inbounds nuw i8, ptr %.val, i64 8
  %8 = getelementptr inbounds nuw i8, ptr %.val, i64 16
  %9 = getelementptr inbounds nuw i8, ptr %.val, i64 24
  %10 = getelementptr inbounds nuw i8, ptr %.val, i64 32
  %11 = getelementptr inbounds nuw i8, ptr %.val, i64 40
  %12 = getelementptr inbounds nuw i8, ptr %.val, i64 48
  %13 = sext i32 %3 to i64
  br label %14

14:                                               ; preds = %.loopexit.i.i.i, %.lr.ph54.i.i.i
  %indvars.iv.i.i.i = phi i64 [ %13, %.lr.ph54.i.i.i ], [ %indvars.iv.next.i.i.i, %.loopexit.i.i.i ]
  %15 = load ptr, ptr %.val, align 8, !tbaa !339
  %16 = load ptr, ptr %15, align 8, !tbaa !19
  %17 = getelementptr inbounds nuw ptr, ptr %16, i64 %indvars.iv.i.i.i
  %18 = load ptr, ptr %17, align 8, !tbaa !36
  %19 = load ptr, ptr %7, align 8, !tbaa !341
  %20 = load ptr, ptr %8, align 8, !tbaa !342
  %21 = load i32, ptr %20, align 4, !tbaa !137
  %22 = trunc nsw i64 %indvars.iv.i.i.i to i32
  %23 = add i32 %21, %22
  %24 = zext i32 %23 to i64
  %25 = load ptr, ptr %19, align 8, !tbaa !19
  %26 = getelementptr inbounds nuw ptr, ptr %25, i64 %24
  %27 = load ptr, ptr %26, align 8, !tbaa !36
  %28 = load ptr, ptr %9, align 8, !tbaa !343
  %29 = load i32, ptr %28, align 4, !tbaa !137
  %30 = load ptr, ptr %10, align 8, !tbaa !344
  %31 = load i32, ptr %30, align 4, !tbaa !137
  %32 = mul i32 %31, %29
  %33 = zext i32 %32 to i64
  %34 = getelementptr inbounds nuw i8, ptr %27, i64 %33
  %35 = load ptr, ptr %11, align 8, !tbaa !345
  %36 = load i8, ptr %35, align 1, !tbaa !121
  %37 = icmp eq i8 %36, 0
  %38 = load ptr, ptr %12, align 8, !tbaa !346
  %39 = load i32, ptr %38, align 4, !tbaa !137
  br i1 %37, label %40, label %.preheader.i.i.i

.preheader.i.i.i:                                 ; preds = %14
  %.not.i.i.i = icmp eq i32 %39, 0
  br i1 %.not.i.i.i, label %.loopexit.i.i.i, label %.lr.ph.i.i.i

40:                                               ; preds = %14
  %41 = mul i32 %39, %31
  %42 = zext i32 %41 to i64
  tail call void @llvm.memcpy.p0.p0.i64(ptr align 1 %34, ptr align 1 %18, i64 %42, i1 false)
  br label %.loopexit.i.i.i

.lr.ph.i.i.i:                                     ; preds = %.preheader.i.i.i, %93
  %43 = phi i32 [ %96, %93 ], [ %31, %.preheader.i.i.i ]
  %.04452.i.i.i = phi ptr [ %98, %93 ], [ %18, %.preheader.i.i.i ]
  %.04551.i.i.i = phi i32 [ %94, %93 ], [ 0, %.preheader.i.i.i ]
  %.04650.i.i.i = phi ptr [ %99, %93 ], [ %34, %.preheader.i.i.i ]
  %44 = getelementptr inbounds nuw i8, ptr %.04452.i.i.i, i64 3
  %45 = load i8, ptr %44, align 1, !tbaa !121
  %46 = zext i8 %45 to i32
  switch i8 %45, label %49 [
    i8 -1, label %47
    i8 0, label %93
  ]

47:                                               ; preds = %.lr.ph.i.i.i
  %48 = sext i32 %43 to i64
  tail call void @llvm.memcpy.p0.p0.i64(ptr align 1 %.04650.i.i.i, ptr nonnull align 1 %.04452.i.i.i, i64 %48, i1 false)
  br label %93

49:                                               ; preds = %.lr.ph.i.i.i
  %50 = getelementptr inbounds nuw i8, ptr %.04650.i.i.i, i64 3
  %51 = load i8, ptr %50, align 1, !tbaa !121
  %.not49.i.i.i = icmp eq i8 %51, 0
  br i1 %.not49.i.i.i, label %91, label %52

52:                                               ; preds = %49
  %53 = zext i8 %51 to i32
  %54 = mul nuw nsw i32 %46, 255
  %55 = xor i32 %46, 255
  %56 = mul nuw nsw i32 %55, %53
  %57 = add nuw nsw i32 %56, %54
  %58 = load i8, ptr %.04452.i.i.i, align 1, !tbaa !121
  %59 = zext i8 %58 to i32
  %60 = mul nuw nsw i32 %54, %59
  %61 = load i8, ptr %.04650.i.i.i, align 1, !tbaa !121
  %62 = zext i8 %61 to i32
  %63 = mul nuw nsw i32 %56, %62
  %64 = add nuw nsw i32 %63, %60
  %65 = udiv i32 %64, %57
  %66 = trunc i32 %65 to i8
  store i8 %66, ptr %.04650.i.i.i, align 1, !tbaa !121
  %67 = getelementptr inbounds nuw i8, ptr %.04452.i.i.i, i64 1
  %68 = load i8, ptr %67, align 1, !tbaa !121
  %69 = zext i8 %68 to i32
  %70 = mul nuw nsw i32 %54, %69
  %71 = getelementptr inbounds nuw i8, ptr %.04650.i.i.i, i64 1
  %72 = load i8, ptr %71, align 1, !tbaa !121
  %73 = zext i8 %72 to i32
  %74 = mul nuw nsw i32 %56, %73
  %75 = add nuw nsw i32 %74, %70
  %76 = udiv i32 %75, %57
  %77 = trunc i32 %76 to i8
  store i8 %77, ptr %71, align 1, !tbaa !121
  %78 = getelementptr inbounds nuw i8, ptr %.04452.i.i.i, i64 2
  %79 = load i8, ptr %78, align 1, !tbaa !121
  %80 = zext i8 %79 to i32
  %81 = mul nuw nsw i32 %54, %80
  %82 = getelementptr inbounds nuw i8, ptr %.04650.i.i.i, i64 2
  %83 = load i8, ptr %82, align 1, !tbaa !121
  %84 = zext i8 %83 to i32
  %85 = mul nuw nsw i32 %56, %84
  %86 = add nuw nsw i32 %85, %81
  %87 = udiv i32 %86, %57
  %88 = trunc i32 %87 to i8
  store i8 %88, ptr %82, align 1, !tbaa !121
  %89 = udiv i32 %57, 255
  %90 = trunc i32 %89 to i8
  store i8 %90, ptr %50, align 1, !tbaa !121
  br label %93

91:                                               ; preds = %49
  %92 = sext i32 %43 to i64
  tail call void @llvm.memcpy.p0.p0.i64(ptr nonnull align 1 %.04650.i.i.i, ptr nonnull align 1 %.04452.i.i.i, i64 %92, i1 false)
  br label %93

93:                                               ; preds = %91, %52, %47, %.lr.ph.i.i.i
  %94 = add nuw i32 %.04551.i.i.i, 1
  %95 = load ptr, ptr %10, align 8, !tbaa !344
  %96 = load i32, ptr %95, align 4, !tbaa !137
  %97 = sext i32 %96 to i64
  %98 = getelementptr inbounds i8, ptr %.04452.i.i.i, i64 %97
  %99 = getelementptr inbounds i8, ptr %.04650.i.i.i, i64 %97
  %100 = load ptr, ptr %12, align 8, !tbaa !346
  %101 = load i32, ptr %100, align 4, !tbaa !137
  %102 = icmp ult i32 %94, %101
  br i1 %102, label %.lr.ph.i.i.i, label %.loopexit.i.i.i, !llvm.loop !347

.loopexit.i.i.i:                                  ; preds = %93, %40, %.preheader.i.i.i
  %indvars.iv.next.i.i.i = add nsw i64 %indvars.iv.i.i.i, 1
  %103 = load i32, ptr %4, align 4, !tbaa !200
  %104 = sext i32 %103 to i64
  %105 = icmp slt i64 %indvars.iv.next.i.i.i, %104
  br i1 %105, label %14, label %"_ZSt10__invoke_rIvRZN2cv10PngDecoder13compose_frameERSt6vectorIPhSaIS3_EERKS5_hjjjjRNS0_3MatEE3$_1JRKNS0_5RangeEEENSt9enable_ifIXsr6__and_ISt7is_voidIT_ESt14__is_invocableIT0_JDpT1_EEEE5valueESI_E4typeEOSL_DpOSM_.exit", !llvm.loop !348

"_ZSt10__invoke_rIvRZN2cv10PngDecoder13compose_frameERSt6vectorIPhSaIS3_EERKS5_hjjjjRNS0_3MatEE3$_1JRKNS0_5RangeEEENSt9enable_ifIXsr6__and_ISt7is_voidIT_ESt14__is_invocableIT0_JDpT1_EEEE5valueESI_E4typeEOSL_DpOSM_.exit": ; preds = %.loopexit.i.i.i, %2
  ret void
}